target datalayout = "e-m:e-p270:32:32-p271:32:32-p272:64:64-i64:64-i128:128-f80:128-n8:16:32:64-S128"
target triple = "x86_64-pc-linux-gnu"

%struct.GeoHashRange = type { double, double }

; Function Attrs: nounwind uwtable
define dso_local void @geohashGetCoordRange(ptr noundef %0, ptr noundef %1) #0 {
  %3 = alloca ptr, align 8
  %4 = alloca ptr, align 8
  store ptr %0, ptr %3, align 8, !tbaa !5
  store ptr %1, ptr %4, align 8, !tbaa !5
  %5 = load ptr, ptr %3, align 8, !tbaa !5
  %6 = getelementptr inbounds nuw %struct.GeoHashRange, ptr %5, i32 0, i32 1
  store double 1.800000e+02, ptr %6, align 8, !tbaa !9
  %7 = load ptr, ptr %3, align 8, !tbaa !5
  %8 = getelementptr inbounds nuw %struct.GeoHashRange, ptr %7, i32 0, i32 0
  store double -1.800000e+02, ptr %8, align 8, !tbaa !12
  %9 = load ptr, ptr %4, align 8, !tbaa !5
  %10 = getelementptr inbounds nuw %struct.GeoHashRange, ptr %9, i32 0, i32 1
  store double 0x40554345B1A57F00, ptr %10, align 8, !tbaa !9
  %11 = load ptr, ptr %4, align 8, !tbaa !5
  %12 = getelementptr inbounds nuw %struct.GeoHashRange, ptr %11, i32 0, i32 0
  store double 0xC0554345B1A57F00, ptr %12, align 8, !tbaa !12
  ret void
}