; Function Attrs: mustprogress nofree norecurse nosync nounwind willreturn memory(argmem: write) uwtable
define dso_local void @geohashGetCoordRange(ptr noundef writeonly captures(none) initializes((0, 16)) %0, ptr noundef writeonly captures(none) initializes((0, 16)) %1) local_unnamed_addr #0 {
  %3 = getelementptr inbounds nuw i8, ptr %0, i64 8
  store double 1.800000e+02, ptr %3, align 8, !tbaa !5
  store double -1.800000e+02, ptr %0, align 8, !tbaa !10
  %4 = getelementptr inbounds nuw i8, ptr %1, i64 8
  store double 0x40554345B1A57F00, ptr %4, align 8, !tbaa !5
  store double 0xC0554345B1A57F00, ptr %1, align 8, !tbaa !10
  ret void
}